; Function Attrs: nounwind uwtable
define range(i32 0, 2) i32 @mz_zip_validate_file_archive(ptr noundef captures(address_is_null) %0, i32 noundef %1, ptr noundef writeonly captures(address_is_null) %2) local_unnamed_addr #8 {
  %4 = alloca %struct.mz_zip_archive, align 8
  call void @llvm.lifetime.start.p0(i64 112, ptr nonnull %4) #34
  %.not = icmp eq ptr %0, null
  br i1 %.not, label %5, label %6

5:                                                ; preds = %3
  %.not22 = icmp eq ptr %2, null
  br i1 %.not22, label %87, label %.sink.split

6:                                                ; preds = %3
  call void @llvm.memset.p0.i64(ptr noundef nonnull align 8 dereferenceable(112) %4, i8 0, i64 112, i1 false)
  %7 = call i32 @mz_zip_reader_init_file_v2(ptr noundef nonnull %4, ptr noundef nonnull %0, i32 noundef %1, i64 noundef 0, i64 noundef 0)
  %.not23 = icmp eq i32 %7, 0
  br i1 %.not23, label %8, label %12

8:                                                ; preds = %6
  %.not24 = icmp eq ptr %2, null
  br i1 %.not24, label %87, label %9

9:                                                ; preds = %8
  %10 = getelementptr inbounds nuw i8, ptr %4, i64 28
  %11 = load i32, ptr %10, align 4
  br label %.sink.split

12:                                               ; preds = %6
  %13 = call i32 @mz_zip_validate_archive(ptr noundef nonnull %4, i32 noundef %1)
  %.not25 = icmp eq i32 %13, 0
  br i1 %.not25, label %.split, label %.split17

.split17:                                         ; preds = %12
  %14 = getelementptr inbounds nuw i8, ptr %4, i64 104
  %15 = load ptr, ptr %14, align 8
  %.not31.i = icmp eq ptr %15, null
  %16 = getelementptr inbounds nuw i8, ptr %4, i64 40
  %17 = load ptr, ptr %16, align 8
  %.not32.i = icmp eq ptr %17, null
  %or.cond = select i1 %.not31.i, i1 true, i1 %.not32.i
  br i1 %or.cond, label %mz_zip_reader_end_internal.exit.thread.thread, label %18

18:                                               ; preds = %.split17
  %19 = getelementptr inbounds nuw i8, ptr %4, i64 48
  %20 = load ptr, ptr %19, align 8
  %.not33.i = icmp ne ptr %20, null
  %21 = getelementptr inbounds nuw i8, ptr %4, i64 20
  %22 = load i32, ptr %21, align 4
  %.not34.i = icmp eq i32 %22, 1
  %or.cond68 = select i1 %.not33.i, i1 %.not34.i, i1 false
  br i1 %or.cond68, label %23, label %mz_zip_reader_end_internal.exit.thread.thread

23:                                               ; preds = %18
  store ptr null, ptr %14, align 8
  %24 = getelementptr inbounds nuw i8, ptr %4, i64 64
  %25 = load ptr, ptr %24, align 8
  %26 = load ptr, ptr %15, align 8
  call void %20(ptr noundef %25, ptr noundef %26) #34
  call void @llvm.memset.p0.i64(ptr noundef nonnull align 8 dereferenceable(32) %15, i8 0, i64 32, i1 false)
  %27 = getelementptr inbounds nuw i8, ptr %15, i64 32
  %28 = load ptr, ptr %19, align 8
  %29 = load ptr, ptr %24, align 8
  %30 = load ptr, ptr %27, align 8
  call void %28(ptr noundef %29, ptr noundef %30) #34
  call void @llvm.memset.p0.i64(ptr noundef nonnull align 8 dereferenceable(32) %27, i8 0, i64 32, i1 false)
  %31 = getelementptr inbounds nuw i8, ptr %15, i64 64
  %32 = load ptr, ptr %19, align 8
  %33 = load ptr, ptr %24, align 8
  %34 = load ptr, ptr %31, align 8
  call void %32(ptr noundef %33, ptr noundef %34) #34
  call void @llvm.memset.p0.i64(ptr noundef nonnull align 8 dereferenceable(32) %31, i8 0, i64 32, i1 false)
  %35 = getelementptr inbounds nuw i8, ptr %15, i64 112
  %36 = load ptr, ptr %35, align 8
  %.not35.i = icmp eq ptr %36, null
  br i1 %.not35.i, label %mz_zip_reader_end_internal.exit.thread, label %37

37:                                               ; preds = %23
  %38 = getelementptr inbounds nuw i8, ptr %4, i64 24
  %39 = load i32, ptr %38, align 8
  %40 = icmp eq i32 %39, 4
  br i1 %40, label %41, label %46

41:                                               ; preds = %37
  %42 = call i32 @fclose(ptr noundef nonnull %36)
  %43 = icmp eq i32 %42, -1
  br i1 %43, label %44, label %46

44:                                               ; preds = %41
  %45 = getelementptr inbounds nuw i8, ptr %4, i64 28
  store i32 21, ptr %45, align 4
  br label %46

46:                                               ; preds = %44, %41, %37
  %47 = phi i1 [ false, %41 ], [ false, %37 ], [ true, %44 ]
  store ptr null, ptr %35, align 8
  br label %mz_zip_reader_end_internal.exit.thread

.split:                                           ; preds = %12
  %48 = getelementptr inbounds nuw i8, ptr %4, i64 28
  %49 = load i32, ptr %48, align 4
  %.fr = freeze i32 %49
  %50 = getelementptr inbounds nuw i8, ptr %4, i64 104
  %51 = load ptr, ptr %50, align 8
  %.not31.i29 = icmp eq ptr %51, null
  %52 = getelementptr inbounds nuw i8, ptr %4, i64 40
  %53 = load ptr, ptr %52, align 8
  %.not32.i30 = icmp eq ptr %53, null
  %or.cond52 = select i1 %.not31.i29, i1 true, i1 %.not32.i30
  br i1 %or.cond52, label %mz_zip_reader_end_internal.exit.thread.thread, label %54

54:                                               ; preds = %.split
  %55 = getelementptr inbounds nuw i8, ptr %4, i64 48
  %56 = load ptr, ptr %55, align 8
  %.not33.i31 = icmp ne ptr %56, null
  %57 = getelementptr inbounds nuw i8, ptr %4, i64 20
  %58 = load i32, ptr %57, align 4
  %.not34.i32 = icmp eq i32 %58, 1
  %or.cond70 = select i1 %.not33.i31, i1 %.not34.i32, i1 false
  br i1 %or.cond70, label %59, label %mz_zip_reader_end_internal.exit.thread.thread

59:                                               ; preds = %54
  store ptr null, ptr %50, align 8
  %60 = getelementptr inbounds nuw i8, ptr %4, i64 64
  %61 = load ptr, ptr %60, align 8
  %62 = load ptr, ptr %51, align 8
  call void %56(ptr noundef %61, ptr noundef %62) #34
  call void @llvm.memset.p0.i64(ptr noundef nonnull align 8 dereferenceable(32) %51, i8 0, i64 32, i1 false)
  %63 = getelementptr inbounds nuw i8, ptr %51, i64 32
  %64 = load ptr, ptr %55, align 8
  %65 = load ptr, ptr %60, align 8
  %66 = load ptr, ptr %63, align 8
  call void %64(ptr noundef %65, ptr noundef %66) #34
  call void @llvm.memset.p0.i64(ptr noundef nonnull align 8 dereferenceable(32) %63, i8 0, i64 32, i1 false)
  %67 = getelementptr inbounds nuw i8, ptr %51, i64 64
  %68 = load ptr, ptr %55, align 8
  %69 = load ptr, ptr %60, align 8
  %70 = load ptr, ptr %67, align 8
  call void %68(ptr noundef %69, ptr noundef %70) #34
  call void @llvm.memset.p0.i64(ptr noundef nonnull align 8 dereferenceable(32) %67, i8 0, i64 32, i1 false)
  %71 = getelementptr inbounds nuw i8, ptr %51, i64 112
  %72 = load ptr, ptr %71, align 8
  %.not35.i34 = icmp eq ptr %72, null
  br i1 %.not35.i34, label %mz_zip_reader_end_internal.exit, label %73

73:                                               ; preds = %59
  %74 = getelementptr inbounds nuw i8, ptr %4, i64 24
  %75 = load i32, ptr %74, align 8
  %76 = icmp eq i32 %75, 4
  br i1 %76, label %77, label %79

77:                                               ; preds = %73
  %78 = call i32 @fclose(ptr noundef nonnull %72)
  %.not54 = icmp eq i32 %78, -1
  br label %79

79:                                               ; preds = %77, %73
  %.2.i35 = phi i1 [ false, %73 ], [ %.not54, %77 ]
  store ptr null, ptr %71, align 8
  br label %mz_zip_reader_end_internal.exit

mz_zip_reader_end_internal.exit:                  ; preds = %59, %79
  %.1.i36 = phi i1 [ %.2.i35, %79 ], [ false, %59 ]
  %80 = load ptr, ptr %55, align 8
  %81 = load ptr, ptr %60, align 8
  call void %80(ptr noundef %81, ptr noundef nonnull %51) #34
  %.pre55 = load i32, ptr %48, align 4
  %.not27 = icmp eq i32 %.fr, 0
  %spec.select53 = select i1 %.not27, i32 %.pre55, i32 %.fr
  br i1 %.1.i36, label %mz_zip_reader_end_internal.exit.thread.thread, label %85

mz_zip_reader_end_internal.exit.thread:           ; preds = %23, %46
  %.1.i = phi i1 [ %47, %46 ], [ false, %23 ]
  %82 = load ptr, ptr %19, align 8
  %83 = load ptr, ptr %24, align 8
  call void %82(ptr noundef %83, ptr noundef nonnull %15) #34
  %.phi.trans.insert = getelementptr inbounds nuw i8, ptr %4, i64 28
  %.pre = load i32, ptr %.phi.trans.insert, align 4
  br i1 %.1.i, label %mz_zip_reader_end_internal.exit.thread.thread, label %85

mz_zip_reader_end_internal.exit.thread.thread:    ; preds = %.split, %54, %18, %.split17, %mz_zip_reader_end_internal.exit, %mz_zip_reader_end_internal.exit.thread
  %84 = phi i32 [ %.pre, %mz_zip_reader_end_internal.exit.thread ], [ %spec.select53, %mz_zip_reader_end_internal.exit ], [ 24, %.split17 ], [ 24, %18 ], [ %.fr, %54 ], [ %.fr, %.split ]
  br label %85

85:                                               ; preds = %mz_zip_reader_end_internal.exit, %mz_zip_reader_end_internal.exit.thread, %mz_zip_reader_end_internal.exit.thread.thread
  %.not264859 = phi i32 [ %84, %mz_zip_reader_end_internal.exit.thread.thread ], [ 0, %mz_zip_reader_end_internal.exit.thread ], [ %.fr, %mz_zip_reader_end_internal.exit ]
  %86 = phi i32 [ 0, %mz_zip_reader_end_internal.exit.thread.thread ], [ 1, %mz_zip_reader_end_internal.exit.thread ], [ 0, %mz_zip_reader_end_internal.exit ]
  %.not28 = icmp eq ptr %2, null
  br i1 %.not28, label %87, label %.sink.split

.sink.split:                                      ; preds = %85, %5, %9
  %.1.sink = phi i32 [ %11, %9 ], [ 24, %5 ], [ %.not264859, %85 ]
  %.016.ph = phi i32 [ 0, %9 ], [ 0, %5 ], [ %86, %85 ]
  store i32 %.1.sink, ptr %2, align 4
  br label %87

87:                                               ; preds = %.sink.split, %85, %8, %5
  %.016 = phi i32 [ 0, %5 ], [ 0, %8 ], [ %86, %85 ], [ %.016.ph, %.sink.split ]
  call void @llvm.lifetime.end.p0(i64 112, ptr nonnull %4) #34
  ret i32 %.016
}